target datalayout = "e-m:e-p270:32:32-p271:32:32-p272:64:64-i64:64-i128:128-f80:128-n8:16:32:64-S128"
target triple = "x86_64-pc-linux-gnu"

%struct.ClusterInfo = type { %struct.ControlData, ptr, %struct.DbInfoArr, ptr, ptr, ptr, ptr, ptr, i16, i32, [64 x i8], i32, ptr, i32 }
%struct.ControlData = type { i32, i32, [25 x i8], i32, i32, i32, i32, i32, i32, i32, i32, i32, i32, i32, i32, i32, i32, i32, i32, i8, i8, i32 }
%struct.DbInfoArr = type { ptr, i32 }

; Function Attrs: nounwind uwtable
define dso_local zeroext i1 @jsonb_9_4_check_applicable(ptr noundef %0) #0 {
  %2 = alloca i1, align 1
  %3 = alloca ptr, align 8
  store ptr %0, ptr %3, align 8
  %4 = load ptr, ptr %3, align 8
  %5 = getelementptr inbounds nuw %struct.ClusterInfo, ptr %4, i32 0, i32 9
  %6 = load i32, ptr %5, align 4
  %7 = udiv i32 %6, 100
  %8 = icmp eq i32 %7, 904
  br i1 %8, label %9, label %16

9:                                                ; preds = %1
  %10 = load ptr, ptr %3, align 8
  %11 = getelementptr inbounds nuw %struct.ClusterInfo, ptr %10, i32 0, i32 0
  %12 = getelementptr inbounds nuw %struct.ControlData, ptr %11, i32 0, i32 1
  %13 = load i32, ptr %12, align 4
  %14 = icmp ult i32 %13, 201409291
  br i1 %14, label %15, label %16

15:                                               ; preds = %9
  store i1 true, ptr %2, align 1
  br label %17

16:                                               ; preds = %9, %1
  store i1 false, ptr %2, align 1
  br label %17

17:                                               ; preds = %16, %15
  %18 = load i1, ptr %2, align 1
  ret i1 %18
}