; Function Attrs: mustprogress nofree norecurse nosync nounwind willreturn memory(argmem: read) uwtable
define dso_local noundef zeroext i1 @jsonb_9_4_check_applicable(ptr noundef readonly captures(none) %0) local_unnamed_addr #0 {
  %2 = getelementptr inbounds nuw i8, ptr %0, i64 180
  %3 = load i32, ptr %2, align 4
  %.off = add i32 %3, -90400
  %4 = icmp ult i32 %.off, 100
  br i1 %4, label %5, label %9

5:                                                ; preds = %1
  %6 = getelementptr inbounds nuw i8, ptr %0, i64 4
  %7 = load i32, ptr %6, align 4
  %8 = icmp ult i32 %7, 201409291
  br i1 %8, label %10, label %9

9:                                                ; preds = %5, %1
  br label %10

10:                                               ; preds = %5, %9
  %.0 = phi i1 [ false, %9 ], [ true, %5 ]
  ret i1 %.0
}